; Function Attrs: mustprogress nounwind uwtable
define dso_local void @_ZN23cmInstallFilesGeneratorD2Ev(ptr noundef nonnull align 8 dereferenceable(298) %0) unnamed_addr #4 align 2 personality ptr @__gxx_personality_v0 {
  store ptr getelementptr inbounds ({ [13 x ptr] }, ptr @_ZTV23cmInstallFilesGenerator, i64 0, i32 0, i64 2), ptr %0, align 8
  %2 = getelementptr inbounds i8, ptr %0, i64 264
  tail call void @_ZNSt7__cxx1112basic_stringIcSt11char_traitsIcESaIcEED1Ev(ptr noundef nonnull align 8 dereferenceable(32) %2) #13
  %3 = getelementptr inbounds i8, ptr %0, i64 232
  tail call void @_ZNSt7__cxx1112basic_stringIcSt11char_traitsIcESaIcEED1Ev(ptr noundef nonnull align 8 dereferenceable(32) %3) #13
  %4 = getelementptr inbounds i8, ptr %0, i64 208
  %5 = load ptr, ptr %4, align 8
  %6 = getelementptr inbounds i8, ptr %0, i64 216
  %7 = load ptr, ptr %6, align 8
  %.not4.i.i.i.i = icmp eq ptr %5, %7
  br i1 %.not4.i.i.i.i, label %_ZSt8_DestroyIPNSt7__cxx1112basic_stringIcSt11char_traitsIcESaIcEEES5_EvT_S7_RSaIT0_E.exit.i, label %.lr.ph.i.i.i.i

.lr.ph.i.i.i.i:                                   ; preds = %1, %.lr.ph.i.i.i.i
  %.05.i.i.i.i = phi ptr [ %8, %.lr.ph.i.i.i.i ], [ %5, %1 ]
  tail call void @_ZNSt7__cxx1112basic_stringIcSt11char_traitsIcESaIcEED1Ev(ptr noundef nonnull align 8 dereferenceable(32) %.05.i.i.i.i) #13
  %8 = getelementptr inbounds i8, ptr %.05.i.i.i.i, i64 32
  %.not.i.i.i.i = icmp eq ptr %8, %7
  br i1 %.not.i.i.i.i, label %_ZSt8_DestroyIPNSt7__cxx1112basic_stringIcSt11char_traitsIcESaIcEEES5_EvT_S7_RSaIT0_E.exitthread-pre-split.i, label %.lr.ph.i.i.i.i, !llvm.loop !7

_ZSt8_DestroyIPNSt7__cxx1112basic_stringIcSt11char_traitsIcESaIcEEES5_EvT_S7_RSaIT0_E.exitthread-pre-split.i: ; preds = %.lr.ph.i.i.i.i
  %.pr.i = load ptr, ptr %4, align 8
  br label %_ZSt8_DestroyIPNSt7__cxx1112basic_stringIcSt11char_traitsIcESaIcEEES5_EvT_S7_RSaIT0_E.exit.i

_ZSt8_DestroyIPNSt7__cxx1112basic_stringIcSt11char_traitsIcESaIcEEES5_EvT_S7_RSaIT0_E.exit.i: ; preds = %_ZSt8_DestroyIPNSt7__cxx1112basic_stringIcSt11char_traitsIcESaIcEEES5_EvT_S7_RSaIT0_E.exitthread-pre-split.i, %1
  %9 = phi ptr [ %.pr.i, %_ZSt8_DestroyIPNSt7__cxx1112basic_stringIcSt11char_traitsIcESaIcEEES5_EvT_S7_RSaIT0_E.exitthread-pre-split.i ], [ %5, %1 ]
  %.not.i.i.i = icmp eq ptr %9, null
  br i1 %.not.i.i.i, label %_ZNSt6vectorINSt7__cxx1112basic_stringIcSt11char_traitsIcESaIcEEESaIS5_EED2Ev.exit, label %10

10:                                               ; preds = %_ZSt8_DestroyIPNSt7__cxx1112basic_stringIcSt11char_traitsIcESaIcEEES5_EvT_S7_RSaIT0_E.exit.i
  tail call void @_ZdlPv(ptr noundef nonnull %9) #17
  br label %_ZNSt6vectorINSt7__cxx1112basic_stringIcSt11char_traitsIcESaIcEEESaIS5_EED2Ev.exit

_ZNSt6vectorINSt7__cxx1112basic_stringIcSt11char_traitsIcESaIcEEESaIS5_EED2Ev.exit: ; preds = %_ZSt8_DestroyIPNSt7__cxx1112basic_stringIcSt11char_traitsIcESaIcEEES5_EvT_S7_RSaIT0_E.exit.i, %10
  tail call void @_ZN18cmInstallGeneratorD2Ev(ptr noundef nonnull align 8 dereferenceable(200) %0) #13
  ret void
}